; Function Attrs: nofree norecurse nosync nounwind memory(read, inaccessiblemem: none) uwtable
define range(i32 1, 0) i32 @Wlc_PrsFindLine(ptr noundef readonly captures(none) %0, ptr noundef %1) local_unnamed_addr #7 {
  %3 = getelementptr inbounds nuw i8, ptr %0, i64 24
  %4 = load ptr, ptr %3, align 8
  %5 = getelementptr i8, ptr %4, i64 4
  %.val = load i32, ptr %5, align 4
  %6 = icmp sgt i32 %.val, 0
  br i1 %6, label %.lr.ph, label %.critedge

.lr.ph:                                           ; preds = %2
  %7 = getelementptr i8, ptr %4, i64 8
  %.val10 = load ptr, ptr %7, align 8
  %8 = getelementptr inbounds nuw i8, ptr %0, i64 16
  %9 = load ptr, ptr %8, align 8
  %10 = ptrtoint ptr %1 to i64
  %11 = ptrtoint ptr %9 to i64
  %12 = sub i64 %10, %11
  %wide.trip.count = zext nneg i32 %.val to i64
  br label %13

13:                                               ; preds = %.lr.ph, %21
  %indvars.iv = phi i64 [ 0, %.lr.ph ], [ %indvars.iv.next, %21 ]
  %14 = getelementptr inbounds nuw i32, ptr %.val10, i64 %indvars.iv
  %15 = load i32, ptr %14, align 4
  %16 = sext i32 %15 to i64
  %17 = icmp slt i64 %12, %16
  br i1 %17, label %18, label %21

18:                                               ; preds = %13
  %19 = trunc nuw nsw i64 %indvars.iv to i32
  %20 = add nuw nsw i32 %19, 1
  br label %.critedge

21:                                               ; preds = %13
  %indvars.iv.next = add nuw nsw i64 %indvars.iv, 1
  %exitcond.not = icmp eq i64 %indvars.iv.next, %wide.trip.count
  br i1 %exitcond.not, label %.critedge, label %13, !llvm.loop !4

.critedge:                                        ; preds = %21, %2, %18
  %.09 = phi i32 [ %20, %18 ], [ -1, %2 ], [ -1, %21 ]
  ret i32 %.09
}